target datalayout = "e-m:e-p270:32:32-p271:32:32-p272:64:64-i64:64-i128:128-f80:128-n8:16:32:64-S128"
target triple = "x86_64-pc-linux-gnu"

@hf_iana_subtype = internal global i32 0, align 4
@hf_iana_mudurl = internal global i32 0, align 4
@hf_unknown_subtype_content = internal global i32 0, align 4

; Function Attrs: null_pointer_is_valid sspstrong uwtable
define internal void @dissect_iana_tlv(ptr noundef %0, ptr noundef %1, ptr noundef %2) #0 {
  %4 = alloca ptr, align 8
  %5 = alloca ptr, align 8
  %6 = alloca ptr, align 8
  %7 = alloca i16, align 2
  %8 = alloca i8, align 1
  %9 = alloca i32, align 4
  store ptr %0, ptr %4, align 8
  store ptr %1, ptr %5, align 8
  store ptr %2, ptr %6, align 8
  call void @llvm.lifetime.start.p0(i64 2, ptr %7) #9
  call void @llvm.lifetime.start.p0(i64 1, ptr %8) #9
  call void @llvm.lifetime.start.p0(i64 4, ptr %9) #9
  store i32 0, ptr %9, align 4
  %10 = load ptr, ptr %4, align 8
  %11 = load i32, ptr %9, align 4
  %12 = call zeroext i8 @tvb_get_uint8(ptr noundef %10, i32 noundef %11)
  store i8 %12, ptr %8, align 1
  %13 = load ptr, ptr %6, align 8
  %14 = load i32, ptr @hf_iana_subtype, align 4
  %15 = load ptr, ptr %4, align 8
  %16 = load i32, ptr %9, align 4
  %17 = call ptr @proto_tree_add_item(ptr noundef %13, i32 noundef %14, ptr noundef %15, i32 noundef %16, i32 noundef 1, i32 noundef 0)
  %18 = load i32, ptr %9, align 4
  %19 = add i32 %18, 1
  store i32 %19, ptr %9, align 4
  %20 = load ptr, ptr %4, align 8
  %21 = load i32, ptr %9, align 4
  %22 = call i32 @tvb_reported_length_remaining(ptr noundef %20, i32 noundef %21)
  %23 = trunc i32 %22 to i16
  store i16 %23, ptr %7, align 2
  %24 = load i8, ptr %8, align 1
  %25 = zext i8 %24 to i32
  switch i32 %25, label %39 [
    i32 1, label %26
  ]

26:                                               ; preds = %3
  %27 = load i16, ptr %7, align 2
  %28 = zext i16 %27 to i32
  %29 = icmp sgt i32 %28, 0
  br i1 %29, label %30, label %38

30:                                               ; preds = %26
  %31 = load ptr, ptr %6, align 8
  %32 = load i32, ptr @hf_iana_mudurl, align 4
  %33 = load ptr, ptr %4, align 8
  %34 = load i32, ptr %9, align 4
  %35 = load i16, ptr %7, align 2
  %36 = zext i16 %35 to i32
  %37 = call ptr @proto_tree_add_item(ptr noundef %31, i32 noundef %32, ptr noundef %33, i32 noundef %34, i32 noundef %36, i32 noundef 0)
  br label %38

38:                                               ; preds = %30, %26
  br label %45

39:                                               ; preds = %3
  %40 = load ptr, ptr %6, align 8
  %41 = load i32, ptr @hf_unknown_subtype_content, align 4
  %42 = load ptr, ptr %4, align 8
  %43 = load i32, ptr %9, align 4
  %44 = call ptr @proto_tree_add_item(ptr noundef %40, i32 noundef %41, ptr noundef %42, i32 noundef %43, i32 noundef -1, i32 noundef 0)
  br label %45

45:                                               ; preds = %39, %38
  call void @llvm.lifetime.end.p0(i64 4, ptr %9) #9
  call void @llvm.lifetime.end.p0(i64 1, ptr %8) #9
  call void @llvm.lifetime.end.p0(i64 2, ptr %7) #9
  ret void
}