; Function Attrs: null_pointer_is_valid sspstrong uwtable
define internal fastcc void @dissect_iana_tlv(ptr noundef %0, ptr noundef %1) unnamed_addr #0 {
  %3 = tail call zeroext i8 @tvb_get_uint8(ptr noundef %0, i32 noundef 0)
  %4 = load i32, ptr @hf_iana_subtype, align 4
  %5 = tail call ptr @proto_tree_add_item(ptr noundef %1, i32 noundef %4, ptr noundef %0, i32 noundef 0, i32 noundef 1, i32 noundef 0)
  %6 = tail call i32 @tvb_reported_length_remaining(ptr noundef %0, i32 noundef 1)
  %cond = icmp eq i8 %3, 1
  br i1 %cond, label %7, label %.sink.split

7:                                                ; preds = %2
  %8 = and i32 %6, 65535
  %.not = icmp eq i32 %8, 0
  br i1 %.not, label %11, label %.sink.split

.sink.split:                                      ; preds = %2, %7
  %hf_iana_mudurl.sink = phi ptr [ @hf_iana_mudurl, %7 ], [ @hf_unknown_subtype_content, %2 ]
  %.sink1 = phi i32 [ %8, %7 ], [ -1, %2 ]
  %9 = load i32, ptr %hf_iana_mudurl.sink, align 4
  %10 = tail call ptr @proto_tree_add_item(ptr noundef %1, i32 noundef %9, ptr noundef %0, i32 noundef 1, i32 noundef %.sink1, i32 noundef 0)
  br label %11

11:                                               ; preds = %.sink.split, %7
  ret void
}